; Function Attrs: mustprogress nofree norecurse nosync nounwind willreturn memory(read, inaccessiblemem: none) uwtable
define noundef double @_ZNK5faiss15OperatingPoints10t_for_perfEd(ptr nocapture noundef nonnull readonly align 8 dereferenceable(48) %0, double noundef %1) local_unnamed_addr #18 align 2 {
  %3 = getelementptr inbounds i8, ptr %0, i64 32
  %4 = load ptr, ptr %3, align 8
  %5 = getelementptr inbounds i8, ptr %4, i64 -56
  %6 = load double, ptr %5, align 8
  %7 = fcmp olt double %6, %1
  br i1 %7, label %30, label %8

8:                                                ; preds = %2
  %9 = getelementptr inbounds i8, ptr %0, i64 24
  %10 = load ptr, ptr %9, align 8
  %11 = ptrtoint ptr %4 to i64
  %12 = ptrtoint ptr %10 to i64
  %13 = sub i64 %11, %12
  %14 = sdiv exact i64 %13, 56
  %15 = trunc i64 %14 to i32
  %16 = add i32 %15, -1
  %17 = icmp sgt i32 %16, 0
  br i1 %17, label %.lr.ph, label %._crit_edge

.lr.ph:                                           ; preds = %8, %.lr.ph
  %.01520 = phi i32 [ %.015., %.lr.ph ], [ %16, %8 ]
  %.01619 = phi i32 [ %..016, %.lr.ph ], [ -1, %8 ]
  %18 = add i32 %.01619, 1
  %19 = add i32 %18, %.01520
  %20 = lshr i32 %19, 1
  %21 = zext nneg i32 %20 to i64
  %22 = getelementptr inbounds %"struct.faiss::OperatingPoint", ptr %10, i64 %21
  %23 = load double, ptr %22, align 8
  %24 = fcmp olt double %23, %1
  %..016 = select i1 %24, i32 %20, i32 %.01619
  %.015. = select i1 %24, i32 %.01520, i32 %20
  %25 = add nsw i32 %..016, 1
  %26 = icmp slt i32 %25, %.015.
  br i1 %26, label %.lr.ph, label %._crit_edge, !llvm.loop !35

._crit_edge:                                      ; preds = %.lr.ph, %8
  %.015.lcssa = phi i32 [ %16, %8 ], [ %.015., %.lr.ph ]
  %27 = sext i32 %.015.lcssa to i64
  %28 = getelementptr inbounds %"struct.faiss::OperatingPoint", ptr %10, i64 %27, i32 1
  %29 = load double, ptr %28, align 8
  br label %30

30:                                               ; preds = %2, %._crit_edge
  %.0 = phi double [ %29, %._crit_edge ], [ 1.000000e+50, %2 ]
  ret double %.0
}